; Function Attrs: mustprogress uwtable
define noundef ptr @_ZN7rocksdb19TransactionBaseImpl11GetIteratorERKNS_11ReadOptionsE(ptr noundef nonnull align 8 dereferenceable(400) %0, ptr noundef nonnull align 8 dereferenceable(168) %1) unnamed_addr #4 align 2 {
  %3 = getelementptr inbounds nuw i8, ptr %0, i64 64
  %4 = load ptr, ptr %3, align 8, !tbaa !73
  %5 = load ptr, ptr %4, align 8, !tbaa !27
  %6 = getelementptr inbounds nuw i8, ptr %5, i64 464
  %7 = load ptr, ptr %6, align 8
  %8 = tail call noundef ptr %7(ptr noundef nonnull align 8 dereferenceable(8) %4, ptr noundef nonnull align 8 dereferenceable(168) %1)
  %9 = getelementptr inbounds nuw i8, ptr %0, i64 184
  %10 = load ptr, ptr %3, align 8, !tbaa !73
  %11 = load ptr, ptr %10, align 8, !tbaa !27
  %12 = getelementptr inbounds nuw i8, ptr %11, i64 1080
  %13 = load ptr, ptr %12, align 8
  %14 = tail call noundef ptr %13(ptr noundef nonnull align 8 dereferenceable(8) %10)
  %15 = tail call noundef ptr @_ZN7rocksdb19WriteBatchWithIndex19NewIteratorWithBaseEPNS_18ColumnFamilyHandleEPNS_8IteratorEPKNS_11ReadOptionsE(ptr noundef nonnull align 8 dereferenceable(16) %9, ptr noundef %14, ptr noundef %8, ptr noundef nonnull %1)
  ret ptr %15
}